; Function Attrs: mustprogress nounwind uwtable
define hidden noundef ptr @_ZN8MulFNode5IdealEP8PhaseGVNb(ptr noundef nonnull align 8 dereferenceable(52) %0, ptr noundef %1, i1 noundef zeroext %2) unnamed_addr #0 align 2 {
  %4 = getelementptr inbounds i8, ptr %0, i64 8
  %5 = load ptr, ptr %4, align 8
  %6 = getelementptr inbounds i8, ptr %5, i64 16
  %7 = load ptr, ptr %6, align 8
  %8 = getelementptr inbounds i8, ptr %1, i64 40
  %9 = load ptr, ptr %8, align 8
  %10 = getelementptr inbounds i8, ptr %7, i64 40
  %11 = load i32, ptr %10, align 8
  %12 = getelementptr inbounds i8, ptr %9, i64 16
  %13 = load ptr, ptr %12, align 8
  %14 = zext i32 %11 to i64
  %15 = getelementptr inbounds ptr, ptr %13, i64 %14
  %16 = load ptr, ptr %15, align 8
  %17 = getelementptr inbounds i8, ptr %16, i64 16
  %18 = load i32, ptr %17, align 8
  %19 = icmp ne i32 %18, 32
  %.not10 = icmp eq ptr %16, null
  %.not = or i1 %.not10, %19
  br i1 %.not, label %49, label %20

20:                                               ; preds = %3
  %21 = getelementptr inbounds i8, ptr %16, i64 20
  %22 = load float, ptr %21, align 4
  %23 = fcmp oeq float %22, 2.000000e+00
  br i1 %23, label %24, label %49

24:                                               ; preds = %20
  %25 = getelementptr inbounds i8, ptr %5, i64 8
  %26 = load ptr, ptr %25, align 8
  %27 = tail call align 8 ptr @llvm.threadlocal.address.p0(ptr align 8 @_ZN6Thread12_thr_currentE)
  %28 = load ptr, ptr %27, align 8
  %29 = getelementptr inbounds i8, ptr %28, i64 1808
  %30 = load ptr, ptr %29, align 8
  %31 = getelementptr inbounds i8, ptr %30, i64 128
  %32 = load ptr, ptr %31, align 8
  %33 = getelementptr inbounds i8, ptr %32, i64 728
  %34 = load ptr, ptr %33, align 8
  %35 = getelementptr inbounds i8, ptr %34, i64 40
  %36 = load ptr, ptr %35, align 8
  %37 = getelementptr inbounds i8, ptr %34, i64 32
  %38 = load ptr, ptr %37, align 8
  %39 = ptrtoint ptr %36 to i64
  %40 = ptrtoint ptr %38 to i64
  %41 = sub i64 %39, %40
  %.not.i.i.i = icmp ult i64 %41, 56
  br i1 %.not.i.i.i, label %44, label %42

42:                                               ; preds = %24
  %43 = getelementptr inbounds i8, ptr %38, i64 56
  store ptr %43, ptr %37, align 8
  br label %_ZN4NodenwEm.exit

44:                                               ; preds = %24
  %45 = tail call noundef ptr @_ZN5Arena4growEmN17AllocFailStrategy13AllocFailEnumE(ptr noundef nonnull align 8 dereferenceable(48) %34, i64 noundef 56, i32 noundef 0) #10
  br label %_ZN4NodenwEm.exit

_ZN4NodenwEm.exit:                                ; preds = %42, %44
  %.0.i.i.i = phi ptr [ %38, %42 ], [ %45, %44 ]
  %46 = icmp eq ptr %.0.i.i.i, null
  br i1 %46, label %51, label %47

47:                                               ; preds = %_ZN4NodenwEm.exit
  tail call void @_ZN4NodeC2EPS_S0_S0_(ptr noundef nonnull align 8 dereferenceable(52) %.0.i.i.i, ptr noundef null, ptr noundef %26, ptr noundef %26) #10
  %48 = getelementptr inbounds i8, ptr %.0.i.i.i, i64 44
  store i32 2048, ptr %48, align 4
  store ptr getelementptr inbounds inrange(-16, 232) (i8, ptr @_ZTV8AddFNode, i64 16), ptr %.0.i.i.i, align 8
  br label %51

49:                                               ; preds = %20, %3
  %50 = tail call noundef ptr @_ZN7MulNode5IdealEP8PhaseGVNb(ptr noundef nonnull align 8 dereferenceable(52) %0, ptr noundef nonnull %1, i1 zeroext poison)
  br label %51

51:                                               ; preds = %_ZN4NodenwEm.exit, %47, %49
  %.0 = phi ptr [ %50, %49 ], [ %.0.i.i.i, %47 ], [ null, %_ZN4NodenwEm.exit ]
  ret ptr %.0
}